target datalayout = "e-m:e-p270:32:32-p271:32:32-p272:64:64-i64:64-i128:128-f80:128-n8:16:32:64-S128"
target triple = "x86_64-pc-linux-gnu"

%struct.mpd_spec_t = type { i64, i64, i8, i8, i8, [5 x i8], ptr, ptr, ptr }

; Function Attrs: nounwind uwtable
define hidden ptr @mpd_qformat(ptr noundef %0, ptr noundef %1, ptr noundef %2, ptr noundef %3) #0 {
  %5 = alloca ptr, align 8
  %6 = alloca ptr, align 8
  %7 = alloca ptr, align 8
  %8 = alloca ptr, align 8
  %9 = alloca ptr, align 8
  %10 = alloca %struct.mpd_spec_t, align 8
  %11 = alloca i32, align 4
  store ptr %0, ptr %6, align 8, !tbaa !3
  store ptr %1, ptr %7, align 8, !tbaa !8
  store ptr %2, ptr %8, align 8, !tbaa !10
  store ptr %3, ptr %9, align 8, !tbaa !12
  call void @llvm.lifetime.start.p0(i64 48, ptr %10) #10
  %12 = load ptr, ptr %7, align 8, !tbaa !8
  %13 = call i32 @mpd_parse_fmt_str(ptr noundef %10, ptr noundef %12, i32 noundef 1)
  %14 = icmp ne i32 %13, 0
  br i1 %14, label %19, label %15

15:                                               ; preds = %4
  %16 = load ptr, ptr %9, align 8, !tbaa !12
  %17 = load i32, ptr %16, align 4, !tbaa !25
  %18 = or i32 %17, 256
  store i32 %18, ptr %16, align 4, !tbaa !25
  store ptr null, ptr %5, align 8
  store i32 1, ptr %11, align 4
  br label %24

19:                                               ; preds = %4
  %20 = load ptr, ptr %6, align 8, !tbaa !3
  %21 = load ptr, ptr %8, align 8, !tbaa !10
  %22 = load ptr, ptr %9, align 8, !tbaa !12
  %23 = call ptr @mpd_qformat_spec(ptr noundef %20, ptr noundef %10, ptr noundef %21, ptr noundef %22)
  store ptr %23, ptr %5, align 8
  store i32 1, ptr %11, align 4
  br label %24

24:                                               ; preds = %19, %15
  call void @llvm.lifetime.end.p0(i64 48, ptr %10) #10
  %25 = load ptr, ptr %5, align 8
  ret ptr %25
}