; Function Attrs: nounwind uwtable
define hidden ptr @mpd_qformat(ptr noundef %0, ptr noundef %1, ptr noundef %2, ptr noundef %3) local_unnamed_addr #0 {
  %5 = alloca %struct.mpd_spec_t, align 8
  call void @llvm.lifetime.start.p0(i64 48, ptr nonnull %5) #18
  %6 = call i32 @mpd_parse_fmt_str(ptr noundef nonnull %5, ptr noundef %1, i32 noundef 1)
  %.not = icmp eq i32 %6, 0
  br i1 %.not, label %7, label %10

7:                                                ; preds = %4
  %8 = load i32, ptr %3, align 4, !tbaa !25
  %9 = or i32 %8, 256
  store i32 %9, ptr %3, align 4, !tbaa !25
  br label %12

10:                                               ; preds = %4
  %11 = call ptr @mpd_qformat_spec(ptr noundef %0, ptr noundef nonnull %5, ptr noundef %2, ptr noundef %3)
  br label %12

12:                                               ; preds = %10, %7
  %.0 = phi ptr [ %11, %10 ], [ null, %7 ]
  call void @llvm.lifetime.end.p0(i64 48, ptr nonnull %5) #18
  ret ptr %.0
}